; Function Attrs: mustprogress uwtable
define void @_ZNK19OpenColorIO_v2_5dev19AllocationTransform18createEditableCopyEv(ptr dead_on_unwind noalias writable writeonly sret(%"class.std::shared_ptr.0") align 8 captures(none) %0, ptr noundef nonnull readonly align 8 captures(none) dereferenceable(16) %1) unnamed_addr #0 align 2 personality ptr @__gxx_personality_v0 {
  %3 = alloca %"class.std::shared_ptr", align 8
  call void @llvm.lifetime.start.p0(i64 16, ptr nonnull %3) #22
  call void @_ZN19OpenColorIO_v2_5dev19AllocationTransform6CreateEv(ptr dead_on_unwind nonnull writable sret(%"class.std::shared_ptr") align 8 %3)
  %4 = getelementptr inbounds nuw i8, ptr %1, i64 8
  %5 = load ptr, ptr %4, align 8, !tbaa !32
  %6 = load ptr, ptr %3, align 8, !tbaa !3
  %7 = getelementptr inbounds nuw i8, ptr %6, i64 8
  %8 = load ptr, ptr %7, align 8, !tbaa !32
  %.not.i = icmp eq ptr %8, %5
  br i1 %.not.i, label %_ZNSt12__shared_ptrIN19OpenColorIO_v2_5dev19AllocationTransformELN9__gnu_cxx12_Lock_policyE2EED2Ev.exit, label %9

9:                                                ; preds = %2
  %10 = load i32, ptr %5, align 8, !tbaa !22
  store i32 %10, ptr %8, align 8, !tbaa !22
  %11 = getelementptr inbounds nuw i8, ptr %5, i64 4
  %12 = load i32, ptr %11, align 4, !tbaa !31
  %13 = getelementptr inbounds nuw i8, ptr %8, i64 4
  store i32 %12, ptr %13, align 4, !tbaa !31
  %14 = getelementptr inbounds nuw i8, ptr %5, i64 8
  %15 = getelementptr inbounds nuw i8, ptr %8, i64 8
  %16 = invoke noundef nonnull align 8 dereferenceable(24) ptr @_ZNSt6vectorIfSaIfEEaSERKS1_(ptr noundef nonnull align 8 dereferenceable(24) %15, ptr noundef nonnull align 8 dereferenceable(24) %14)
          to label %_ZNSt12__shared_ptrIN19OpenColorIO_v2_5dev19AllocationTransformELN9__gnu_cxx12_Lock_policyE2EED2Ev.exit unwind label %20

_ZNSt12__shared_ptrIN19OpenColorIO_v2_5dev19AllocationTransformELN9__gnu_cxx12_Lock_policyE2EED2Ev.exit: ; preds = %9, %2
  store ptr %6, ptr %0, align 8, !tbaa !36
  %17 = getelementptr inbounds nuw i8, ptr %0, i64 8
  %18 = getelementptr inbounds nuw i8, ptr %3, i64 8
  %19 = load ptr, ptr %18, align 8, !tbaa !11
  store ptr %19, ptr %17, align 8, !tbaa !11
  call void @llvm.lifetime.end.p0(i64 16, ptr nonnull %3) #22
  ret void

20:                                               ; preds = %9
  %21 = landingpad { ptr, i32 }
          cleanup
  call void @_ZNSt12__shared_ptrIN19OpenColorIO_v2_5dev19AllocationTransformELN9__gnu_cxx12_Lock_policyE2EED2Ev(ptr noundef nonnull align 8 dereferenceable(16) %3) #22
  call void @llvm.lifetime.end.p0(i64 16, ptr nonnull %3) #22
  resume { ptr, i32 } %21
}